; Function Attrs: nounwind uwtable
define internal fastcc void @DestroyLogicalAudioDevice(ptr noundef nonnull %0) unnamed_addr #0 {
  %2 = load ptr, ptr getelementptr inbounds nuw (i8, ptr @current_audio, i64 144), align 8
  %.not = icmp eq ptr %2, null
  br i1 %.not, label %11, label %3

3:                                                ; preds = %1
  %4 = load ptr, ptr getelementptr inbounds nuw (i8, ptr @current_audio, i64 136), align 8
  tail call void @SDL_LockRWLockForWriting_REAL(ptr noundef %4) #14
  %5 = load ptr, ptr getelementptr inbounds nuw (i8, ptr @current_audio, i64 144), align 8
  %6 = load i32, ptr %0, align 8
  %7 = zext i32 %6 to i64
  %8 = inttoptr i64 %7 to ptr
  %9 = tail call zeroext i1 @SDL_RemoveFromHashTable(ptr noundef %5, ptr noundef %8) #14
  %10 = load ptr, ptr getelementptr inbounds nuw (i8, ptr @current_audio, i64 136), align 8
  tail call void @SDL_UnlockRWLock_REAL(ptr noundef %10) #14
  br label %11

11:                                               ; preds = %3, %1
  %12 = getelementptr inbounds nuw i8, ptr %0, i64 80
  %13 = load ptr, ptr %12, align 8
  %.not24 = icmp eq ptr %13, null
  %.phi.trans.insert = getelementptr inbounds nuw i8, ptr %0, i64 88
  %.pre = load ptr, ptr %.phi.trans.insert, align 8
  br i1 %.not24, label %._crit_edge29, label %14

14:                                               ; preds = %11
  %15 = getelementptr inbounds nuw i8, ptr %13, i64 88
  store ptr %.pre, ptr %15, align 8
  br label %._crit_edge29

._crit_edge29:                                    ; preds = %11, %14
  %.not25 = icmp eq ptr %.pre, null
  br i1 %.not25, label %19, label %16

16:                                               ; preds = %._crit_edge29
  %17 = load ptr, ptr %12, align 8
  %18 = getelementptr inbounds nuw i8, ptr %.pre, i64 80
  store ptr %17, ptr %18, align 8
  br label %19

19:                                               ; preds = %16, %._crit_edge29
  %20 = getelementptr inbounds nuw i8, ptr %0, i64 8
  %21 = load ptr, ptr %20, align 8
  %22 = getelementptr inbounds nuw i8, ptr %21, i64 208
  %23 = load ptr, ptr %22, align 8
  %24 = icmp eq ptr %23, %0
  br i1 %24, label %25, label %27

25:                                               ; preds = %19
  %26 = load ptr, ptr %12, align 8
  store ptr %26, ptr %22, align 8
  br label %27

27:                                               ; preds = %25, %19
  %28 = getelementptr inbounds nuw i8, ptr %0, i64 24
  %29 = load ptr, ptr %28, align 8
  %.not2627 = icmp eq ptr %29, null
  br i1 %.not2627, label %._crit_edge, label %.lr.ph

._crit_edge:                                      ; preds = %.lr.ph, %27
  %30 = load ptr, ptr %20, align 8
  tail call fastcc void @UpdateAudioStreamFormatsPhysical(ptr noundef %30)
  tail call void @SDL_free_REAL(ptr noundef nonnull %0) #14
  ret void

.lr.ph:                                           ; preds = %27, %.lr.ph
  %.028 = phi ptr [ %33, %.lr.ph ], [ %29, %27 ]
  %31 = load ptr, ptr %.028, align 8
  tail call void @SDL_LockMutex_REAL(ptr noundef %31) #14
  %32 = getelementptr inbounds nuw i8, ptr %.028, i64 200
  %33 = load ptr, ptr %32, align 8
  %34 = getelementptr inbounds nuw i8, ptr %.028, i64 192
  tail call void @llvm.memset.p0.i64(ptr noundef nonnull align 8 dereferenceable(24) %34, i8 0, i64 24, i1 false)
  %35 = load ptr, ptr %.028, align 8
  tail call void @SDL_UnlockMutex_REAL(ptr noundef %35) #14
  %.not26 = icmp eq ptr %33, null
  br i1 %.not26, label %._crit_edge, label %.lr.ph, !llvm.loop !18
}